; Function Attrs: mustprogress uwtable
define noundef nonnull align 8 dereferenceable(24) ptr @_ZN3nix15BindingsBuilder5allocENS_6SymbolENS_6PosIdxE(ptr nocapture noundef nonnull readonly align 8 dereferenceable(16) %0, i32 %1, i32 %2) local_unnamed_addr #4 align 2 {
  %4 = getelementptr inbounds i8, ptr %0, i64 8
  %5 = load ptr, ptr %4, align 8
  %6 = getelementptr inbounds i8, ptr %5, i64 896
  %7 = load ptr, ptr %6, align 8
  %8 = load ptr, ptr %7, align 8
  %.not = icmp eq ptr %8, null
  br i1 %.not, label %9, label %16

9:                                                ; preds = %3
  %10 = tail call noalias ptr @GC_malloc_many(i64 noundef 24)
  %11 = load ptr, ptr %6, align 8
  store ptr %10, ptr %11, align 8
  %12 = load ptr, ptr %6, align 8
  %13 = load ptr, ptr %12, align 8
  %.not10 = icmp eq ptr %13, null
  br i1 %.not10, label %14, label %16

14:                                               ; preds = %9
  %15 = tail call ptr @__cxa_allocate_exception(i64 8) #25
  store ptr getelementptr inbounds ({ [5 x ptr] }, ptr @_ZTVSt9bad_alloc, i64 0, i32 0, i64 2), ptr %15, align 8
  tail call void @__cxa_throw(ptr nonnull %15, ptr nonnull @_ZTISt9bad_alloc, ptr nonnull @_ZNSt9bad_allocD1Ev) #26
  unreachable

16:                                               ; preds = %9, %3
  %17 = phi ptr [ %13, %9 ], [ %8, %3 ]
  %18 = phi ptr [ %12, %9 ], [ %7, %3 ]
  %19 = load ptr, ptr %17, align 8
  store ptr %19, ptr %18, align 8
  store ptr null, ptr %17, align 8
  %20 = getelementptr inbounds i8, ptr %5, i64 1008
  %21 = load i64, ptr %20, align 8
  %22 = add i64 %21, 1
  store i64 %22, ptr %20, align 8
  %23 = load ptr, ptr %0, align 8
  %24 = getelementptr inbounds i8, ptr %23, i64 16
  %25 = getelementptr inbounds i8, ptr %23, i64 4
  %26 = load i32, ptr %25, align 4
  %27 = add i32 %26, 1
  store i32 %27, ptr %25, align 4
  %28 = zext i32 %26 to i64
  %29 = getelementptr inbounds [0 x %"struct.nix::Attr"], ptr %24, i64 0, i64 %28
  store i32 %1, ptr %29, align 8
  %.sroa.2.0..sroa_idx = getelementptr inbounds i8, ptr %29, i64 4
  store i32 %2, ptr %.sroa.2.0..sroa_idx, align 4
  %.sroa.3.0..sroa_idx = getelementptr inbounds i8, ptr %29, i64 8
  store ptr %17, ptr %.sroa.3.0..sroa_idx, align 8
  ret ptr %17
}